target datalayout = "e-m:e-p270:32:32-p271:32:32-p272:64:64-i64:64-i128:128-f80:128-n8:16:32:64-S128"
target triple = "x86_64-pc-linux-gnu"

%"class.tl::expected" = type { %"struct.tl::detail::expected_move_assign_base.base", [7 x i8] }
%"struct.tl::detail::expected_move_assign_base.base" = type { %"struct.tl::detail::expected_copy_assign_base.base" }
%"struct.tl::detail::expected_copy_assign_base.base" = type { %"struct.tl::detail::expected_move_base.base" }
%"struct.tl::detail::expected_move_base.base" = type { %"struct.tl::detail::expected_copy_base.base" }
%"struct.tl::detail::expected_copy_base.base" = type { %"struct.tl::detail::expected_operations_base.base" }
%"struct.tl::detail::expected_operations_base.base" = type { %"struct.tl::detail::expected_storage_base.base" }
%"struct.tl::detail::expected_storage_base.base" = type <{ %union.anon.0, i8 }>
%union.anon.0 = type { %"struct.LIEF::ELF::CorePrPsInfo::info_t" }
%"struct.LIEF::ELF::CorePrPsInfo::info_t" = type { i8, i8, i8, i8, i64, i32, i32, i32, i32, i32, i32, %"class.std::__cxx11::basic_string", %"class.std::__cxx11::basic_string" }
%"class.std::__cxx11::basic_string" = type { %"struct.std::__cxx11::basic_string<char>::_Alloc_hider", i64, %union.anon.1 }
%"struct.std::__cxx11::basic_string<char>::_Alloc_hider" = type { ptr }
%union.anon.1 = type { i64, [8 x i8] }
%"class.LIEF::ELF::CorePrPsInfo" = type { %"class.LIEF::ELF::Note", i32, i32 }
%"class.LIEF::ELF::Note" = type { %"class.LIEF::Object", %"class.std::__cxx11::basic_string", i32, i32, %"class.std::vector" }
%"class.LIEF::Object" = type { ptr }
%"class.std::vector" = type { %"struct.std::_Vector_base" }
%"struct.std::_Vector_base" = type { %"struct.std::_Vector_base<unsigned char, std::allocator<unsigned char>>::_Vector_impl" }
%"struct.std::_Vector_base<unsigned char, std::allocator<unsigned char>>::_Vector_impl" = type { %"struct.std::_Vector_base<unsigned char, std::allocator<unsigned char>>::_Vector_impl_data" }
%"struct.std::_Vector_base<unsigned char, std::allocator<unsigned char>>::_Vector_impl_data" = type { ptr, ptr, ptr }

; Function Attrs: mustprogress uwtable
define void @_ZNK4LIEF3ELF12CorePrPsInfo4infoEv(ptr dead_on_unwind noalias writable sret(%"class.tl::expected") align 8 %0, ptr noundef nonnull align 8 dereferenceable(80) %1) #3 align 2 {
  %3 = alloca ptr, align 8
  %4 = alloca ptr, align 8
  store ptr %0, ptr %3, align 8
  store ptr %1, ptr %4, align 8
  %5 = load ptr, ptr %4, align 8
  %6 = getelementptr inbounds %"class.LIEF::ELF::CorePrPsInfo", ptr %5, i32 0, i32 2
  %7 = load i32, ptr %6, align 4
  %8 = icmp eq i32 %7, 1
  br i1 %8, label %9, label %11

9:                                                ; preds = %2
  %10 = getelementptr inbounds %"class.LIEF::ELF::Note", ptr %5, i32 0, i32 4
  call void @_ZN4LIEF3ELF13get_info_implINS0_7details5ELF32EEEN2tl8expectedINS0_12CorePrPsInfo6info_tE11lief_errorsEERKSt6vectorIhSaIhEE(ptr dead_on_unwind writable sret(%"class.tl::expected") align 8 %0, ptr noundef nonnull align 8 dereferenceable(24) %10)
  br label %13

11:                                               ; preds = %2
  %12 = getelementptr inbounds %"class.LIEF::ELF::Note", ptr %5, i32 0, i32 4
  call void @_ZN4LIEF3ELF13get_info_implINS0_7details5ELF64EEEN2tl8expectedINS0_12CorePrPsInfo6info_tE11lief_errorsEERKSt6vectorIhSaIhEE(ptr dead_on_unwind writable sret(%"class.tl::expected") align 8 %0, ptr noundef nonnull align 8 dereferenceable(24) %12)
  br label %13

13:                                               ; preds = %11, %9
  ret void
}